target datalayout = "e-m:e-p270:32:32-p271:32:32-p272:64:64-i64:64-i128:128-f80:128-n8:16:32:64-S128"
target triple = "x86_64-pc-linux-gnu"

; Function Attrs: nounwind sspstrong uwtable
define internal void @fw_cfg_write(ptr noundef %0, i8 noundef zeroext %1) #0 {
  %3 = alloca ptr, align 8
  %4 = alloca i8, align 1
  store ptr %0, ptr %3, align 8
  store i8 %1, ptr %4, align 1
  ret void
}

; Function Attrs: nounwind sspstrong uwtable
define internal void @fw_cfg_comb_write(ptr noundef %0, i64 noundef %1, i64 noundef %2, i32 noundef %3) #0 {
  %5 = alloca ptr, align 8
  %6 = alloca i64, align 8
  %7 = alloca i64, align 8
  %8 = alloca i32, align 4
  store ptr %0, ptr %5, align 8
  store i64 %1, ptr %6, align 8
  store i64 %2, ptr %7, align 8
  store i32 %3, ptr %8, align 4
  %9 = load i32, ptr %8, align 4
  switch i32 %9, label %19 [
    i32 1, label %10
    i32 2, label %14
  ]

10:                                               ; preds = %4
  %11 = load ptr, ptr %5, align 8
  %12 = load i64, ptr %7, align 8
  %13 = trunc i64 %12 to i8
  call void @fw_cfg_write(ptr noundef %11, i8 noundef zeroext %13)
  br label %19

14:                                               ; preds = %4
  %15 = load ptr, ptr %5, align 8
  %16 = load i64, ptr %7, align 8
  %17 = trunc i64 %16 to i16
  %18 = call i32 @fw_cfg_select(ptr noundef %15, i16 noundef zeroext %17)
  br label %19

19:                                               ; preds = %4, %14, %10
  ret void
}