; Function Attrs: nounwind sspstrong uwtable
define internal void @fw_cfg_comb_write(ptr noundef %0, i64 %1, i64 noundef %2, i32 noundef %3) #2 {
  %cond = icmp eq i32 %3, 2
  br i1 %cond, label %5, label %7

5:                                                ; preds = %4
  %6 = trunc i64 %2 to i16
  tail call fastcc void @fw_cfg_select(ptr noundef %0, i16 noundef zeroext %6)
  br label %7

7:                                                ; preds = %4, %5
  ret void
}